; Function Attrs: mustprogress uwtable
define void @_ZNK5Ipopt10Journalist14PrintfIndentedENS_13EJournalLevelENS_16EJournalCategoryEiPKcz(ptr noundef nonnull align 8 dereferenceable(40) %0, i32 noundef %1, i32 noundef %2, i32 noundef %3, ptr noundef %4, ...) unnamed_addr #3 align 2 {
  %6 = alloca [1 x %struct.__va_list_tag], align 16
  call void @llvm.va_start(ptr nonnull %6)
  %7 = load ptr, ptr %0, align 8
  %8 = getelementptr inbounds i8, ptr %7, i64 48
  %9 = load ptr, ptr %8, align 8
  call void %9(ptr noundef nonnull align 8 dereferenceable(40) %0, i32 noundef %1, i32 noundef %2, i32 noundef %3, ptr noundef %4, ptr noundef nonnull %6)
  call void @llvm.va_end(ptr nonnull %6)
  ret void
}